target datalayout = "e-m:e-p270:32:32-p271:32:32-p272:64:64-i64:64-i128:128-f80:128-n8:16:32:64-S128"
target triple = "x86_64-pc-linux-gnu"

%struct.sq_queue_s = type { ptr, ptr }
%struct.mutex_s = type { %struct.sem_s, i32 }
%struct.sem_s = type { i16, i8, %struct.dq_queue_s, ptr }
%struct.dq_queue_s = type { ptr, ptr }
%struct.rmutex_s = type { %struct.mutex_s, i32 }
%struct.mm_map_s = type { %struct.sq_queue_s, i64, %struct.rmutex_s }
%struct.sq_entry_s = type { ptr }

; Function Attrs: nounwind uwtable
define i32 @mm_map_add(ptr noundef %0, ptr noundef %1) #0 {
  %3 = alloca i32, align 4
  %4 = alloca ptr, align 8
  %5 = alloca ptr, align 8
  %6 = alloca ptr, align 8
  %7 = alloca i32, align 4
  %8 = alloca ptr, align 8
  store ptr %0, ptr %4, align 8
  store ptr %1, ptr %5, align 8
  %9 = load ptr, ptr %5, align 8
  %10 = icmp ne ptr %9, null
  br i1 %10, label %12, label %11

11:                                               ; preds = %2
  store i32 -22, ptr %3, align 4
  br label %70

12:                                               ; preds = %2
  %13 = call noalias ptr @malloc(i64 noundef 56) #4
  store ptr %13, ptr %6, align 8
  %14 = load ptr, ptr %6, align 8
  %15 = icmp ne ptr %14, null
  br i1 %15, label %17, label %16

16:                                               ; preds = %12
  store i32 -22, ptr %3, align 4
  br label %70

17:                                               ; preds = %12
  %18 = load ptr, ptr %6, align 8
  %19 = load ptr, ptr %5, align 8
  call void @llvm.memcpy.p0.p0.i64(ptr align 8 %18, ptr align 8 %19, i64 56, i1 false)
  %20 = load ptr, ptr %4, align 8
  %21 = getelementptr inbounds %struct.mm_map_s, ptr %20, i32 0, i32 2
  %22 = call i32 @nxrmutex_lock(ptr noundef %21)
  store i32 %22, ptr %7, align 4
  %23 = load i32, ptr %7, align 4
  %24 = icmp slt i32 %23, 0
  br i1 %24, label %25, label %28

25:                                               ; preds = %17
  %26 = load ptr, ptr %6, align 8
  call void @free(ptr noundef %26)
  %27 = load i32, ptr %7, align 4
  store i32 %27, ptr %3, align 4
  br label %70

28:                                               ; preds = %17
  %29 = load ptr, ptr %4, align 8
  %30 = getelementptr inbounds %struct.mm_map_s, ptr %29, i32 0, i32 1
  %31 = load i64, ptr %30, align 8
  %32 = icmp uge i64 %31, 1024
  br i1 %32, label %33, label %38

33:                                               ; preds = %28
  %34 = load ptr, ptr %6, align 8
  call void @free(ptr noundef %34)
  %35 = load ptr, ptr %4, align 8
  %36 = getelementptr inbounds %struct.mm_map_s, ptr %35, i32 0, i32 2
  %37 = call i32 @nxrmutex_unlock(ptr noundef %36)
  store i32 -12, ptr %3, align 4
  br label %70

38:                                               ; preds = %28
  %39 = load ptr, ptr %4, align 8
  %40 = getelementptr inbounds %struct.mm_map_s, ptr %39, i32 0, i32 1
  %41 = load i64, ptr %40, align 8
  %42 = add i64 %41, 1
  store i64 %42, ptr %40, align 8
  br label %43

43:                                               ; preds = %38
  %44 = load ptr, ptr %6, align 8
  store ptr %44, ptr %8, align 8
  %45 = load ptr, ptr %4, align 8
  %46 = getelementptr inbounds %struct.mm_map_s, ptr %45, i32 0, i32 0
  %47 = getelementptr inbounds %struct.sq_queue_s, ptr %46, i32 0, i32 0
  %48 = load ptr, ptr %47, align 8
  %49 = load ptr, ptr %8, align 8
  %50 = getelementptr inbounds %struct.sq_entry_s, ptr %49, i32 0, i32 0
  store ptr %48, ptr %50, align 8
  %51 = load ptr, ptr %4, align 8
  %52 = getelementptr inbounds %struct.mm_map_s, ptr %51, i32 0, i32 0
  %53 = getelementptr inbounds %struct.sq_queue_s, ptr %52, i32 0, i32 0
  %54 = load ptr, ptr %53, align 8
  %55 = icmp ne ptr %54, null
  br i1 %55, label %61, label %56

56:                                               ; preds = %43
  %57 = load ptr, ptr %8, align 8
  %58 = load ptr, ptr %4, align 8
  %59 = getelementptr inbounds %struct.mm_map_s, ptr %58, i32 0, i32 0
  %60 = getelementptr inbounds %struct.sq_queue_s, ptr %59, i32 0, i32 1
  store ptr %57, ptr %60, align 8
  br label %61

61:                                               ; preds = %56, %43
  %62 = load ptr, ptr %8, align 8
  %63 = load ptr, ptr %4, align 8
  %64 = getelementptr inbounds %struct.mm_map_s, ptr %63, i32 0, i32 0
  %65 = getelementptr inbounds %struct.sq_queue_s, ptr %64, i32 0, i32 0
  store ptr %62, ptr %65, align 8
  br label %66

66:                                               ; preds = %61
  %67 = load ptr, ptr %4, align 8
  %68 = getelementptr inbounds %struct.mm_map_s, ptr %67, i32 0, i32 2
  %69 = call i32 @nxrmutex_unlock(ptr noundef %68)
  store i32 0, ptr %3, align 4
  br label %70

70:                                               ; preds = %66, %33, %25, %16, %11
  %71 = load i32, ptr %3, align 4
  ret i32 %71
}