; Function Attrs: nounwind uwtable
define range(i32 -2147483648, 1) i32 @mm_map_add(ptr noundef %0, ptr noundef readonly %1) local_unnamed_addr #0 {
  %.not = icmp eq ptr %1, null
  br i1 %.not, label %23, label %3

3:                                                ; preds = %2
  %4 = tail call noalias dereferenceable_or_null(56) ptr @malloc(i64 noundef 56) #7
  %.not25 = icmp eq ptr %4, null
  br i1 %.not25, label %23, label %5

5:                                                ; preds = %3
  tail call void @llvm.memcpy.p0.p0.i64(ptr noundef nonnull align 8 dereferenceable(56) %4, ptr noundef nonnull align 8 dereferenceable(56) %1, i64 56, i1 false)
  %6 = getelementptr inbounds nuw i8, ptr %0, i64 24
  %7 = tail call i32 @nxrmutex_lock(ptr noundef nonnull %6) #6
  %8 = icmp slt i32 %7, 0
  br i1 %8, label %9, label %10

9:                                                ; preds = %5
  tail call void @free(ptr noundef nonnull %4)
  br label %23

10:                                               ; preds = %5
  %11 = getelementptr inbounds nuw i8, ptr %0, i64 16
  %12 = load i64, ptr %11, align 8
  %13 = icmp ugt i64 %12, 1023
  br i1 %13, label %14, label %16

14:                                               ; preds = %10
  tail call void @free(ptr noundef nonnull %4)
  %15 = tail call i32 @nxrmutex_unlock(ptr noundef nonnull %6) #6
  br label %23

16:                                               ; preds = %10
  %17 = add nuw nsw i64 %12, 1
  store i64 %17, ptr %11, align 8
  %18 = load ptr, ptr %0, align 8
  store ptr %18, ptr %4, align 8
  %.not26 = icmp eq ptr %18, null
  br i1 %.not26, label %19, label %21

19:                                               ; preds = %16
  %20 = getelementptr inbounds nuw i8, ptr %0, i64 8
  store ptr %4, ptr %20, align 8
  br label %21

21:                                               ; preds = %19, %16
  store ptr %4, ptr %0, align 8
  %22 = tail call i32 @nxrmutex_unlock(ptr noundef nonnull %6) #6
  br label %23

23:                                               ; preds = %3, %2, %21, %14, %9
  %.0 = phi i32 [ %7, %9 ], [ -12, %14 ], [ 0, %21 ], [ -22, %2 ], [ -22, %3 ]
  ret i32 %.0
}